; Function Attrs: cold nounwind optsize uwtable
define internal noundef i32 @decode_close(ptr noundef readonly captures(none) %0) #0 {
  %2 = getelementptr inbounds nuw i8, ptr %0, i64 32
  %3 = load ptr, ptr %2, align 8, !tbaa !4
  %4 = getelementptr inbounds nuw i8, ptr %3, i64 160
  tail call void @ff_vlc_free(ptr noundef nonnull %4) #13
  %5 = getelementptr inbounds nuw i8, ptr %3, i64 184
  tail call void @av_frame_free(ptr noundef nonnull %5) #13
  %6 = getelementptr inbounds nuw i8, ptr %3, i64 144
  tail call void @av_freep(ptr noundef nonnull %6) #13
  %7 = getelementptr inbounds nuw i8, ptr %3, i64 152
  store i32 0, ptr %7, align 8, !tbaa !97
  %8 = getelementptr inbounds nuw i8, ptr %3, i64 896
  tail call void @av_freep(ptr noundef nonnull %8) #13
  %9 = getelementptr inbounds nuw i8, ptr %3, i64 904
  store i32 0, ptr %9, align 8, !tbaa !98
  %10 = getelementptr inbounds nuw i8, ptr %3, i64 128
  tail call void @av_freep(ptr noundef nonnull %10) #13
  %11 = getelementptr inbounds nuw i8, ptr %3, i64 136
  store i32 0, ptr %11, align 8, !tbaa !99
  %12 = getelementptr inbounds nuw i8, ptr %3, i64 912
  tail call void @av_freep(ptr noundef nonnull %12) #13
  %13 = getelementptr inbounds nuw i8, ptr %3, i64 920
  store i32 0, ptr %13, align 8, !tbaa !100
  ret i32 0
}